; Function Attrs: nounwind uwtable
define internal ptr @_functools_cmp_to_key(ptr noundef readonly captures(none) %0, ptr noundef %1, i64 noundef %2, ptr noundef %3) #0 {
  %5 = alloca [1 x ptr], align 8
  call void @llvm.lifetime.start.p0(i64 8, ptr nonnull %5) #9
  %6 = icmp eq ptr %3, null
  %7 = icmp eq i64 %2, 1
  %or.cond3 = and i1 %7, %6
  %8 = icmp ne ptr %1, null
  %or.cond5 = and i1 %8, %or.cond3
  br i1 %or.cond5, label %.thread, label %9

9:                                                ; preds = %4
  %10 = call ptr @_PyArg_UnpackKeywords(ptr noundef %1, i64 noundef %2, ptr noundef null, ptr noundef %3, ptr noundef nonnull @_functools_cmp_to_key._parser, i32 noundef 1, i32 noundef 1, i32 noundef 0, i32 noundef 0, ptr noundef nonnull %5) #9
  %.not = icmp eq ptr %10, null
  br i1 %.not, label %_functools_cmp_to_key_impl.exit, label %.thread

.thread:                                          ; preds = %4, %9
  %11 = phi ptr [ %10, %9 ], [ %1, %4 ]
  %12 = load ptr, ptr %11, align 8, !tbaa !20
  %13 = getelementptr i8, ptr %0, i64 32
  %.val = load ptr, ptr %13, align 8, !tbaa !4
  %14 = getelementptr i8, ptr %.val, i64 32
  %.val.val = load ptr, ptr %14, align 8, !tbaa !18
  %15 = call ptr @_PyObject_GC_New(ptr noundef %.val.val) #9
  %.not.i = icmp eq ptr %15, null
  br i1 %.not.i, label %_functools_cmp_to_key_impl.exit, label %16

16:                                               ; preds = %.thread
  %17 = load i32, ptr %12, align 8, !tbaa !21
  %18 = icmp slt i32 %17, 0
  br i1 %18, label %_Py_NewRef.exit.i, label %19

19:                                               ; preds = %16
  %20 = add nuw i32 %17, 1
  store i32 %20, ptr %12, align 8, !tbaa !21
  br label %_Py_NewRef.exit.i

_Py_NewRef.exit.i:                                ; preds = %19, %16
  %21 = getelementptr inbounds nuw i8, ptr %15, i64 16
  store ptr %12, ptr %21, align 8, !tbaa !110
  %22 = getelementptr inbounds nuw i8, ptr %15, i64 24
  store ptr null, ptr %22, align 8, !tbaa !112
  call void @PyObject_GC_Track(ptr noundef nonnull %15) #9
  br label %_functools_cmp_to_key_impl.exit

_functools_cmp_to_key_impl.exit:                  ; preds = %_Py_NewRef.exit.i, %.thread, %9
  %.0 = phi ptr [ null, %9 ], [ null, %.thread ], [ %15, %_Py_NewRef.exit.i ]
  call void @llvm.lifetime.end.p0(i64 8, ptr nonnull %5) #9
  ret ptr %.0
}